; Function Attrs: mustprogress uwtable
define hidden void @_ZN3smt13quick_checker9collector7collectEP4exprP9func_declj(ptr noundef nonnull align 8 dereferenceable(72) %0, ptr noundef %1, ptr noundef %2, i32 noundef %3) local_unnamed_addr #4 align 2 {
  %5 = alloca %"struct.smt::quick_checker::collector::entry", align 8
  %6 = alloca %"struct.smt::quick_checker::collector::entry", align 8
  %7 = getelementptr inbounds nuw i8, ptr %1, i64 4
  %8 = load i32, ptr %7, align 4
  %trunc = trunc i32 %8 to i16
  switch i16 %trunc, label %_Z9is_groundPK4expr.exit.thread [
    i16 2, label %18
    i16 1, label %18
    i16 0, label %_Z9is_groundPK4expr.exit
  ]

_Z9is_groundPK4expr.exit:                         ; preds = %4
  %9 = getelementptr inbounds nuw i8, ptr %1, i64 30
  %10 = load i8, ptr %9, align 2
  %11 = and i8 %10, 1
  %.not = icmp eq i8 %11, 0
  br i1 %.not, label %_Z9is_groundPK4expr.exit.thread, label %18

_Z9is_groundPK4expr.exit.thread:                  ; preds = %4, %_Z9is_groundPK4expr.exit
  call void @llvm.lifetime.start.p0(i64 24, ptr nonnull %6) #19
  store ptr %1, ptr %6, align 8, !tbaa !586
  %12 = getelementptr inbounds nuw i8, ptr %6, i64 8
  store ptr %2, ptr %12, align 8, !tbaa !587
  %13 = getelementptr inbounds nuw i8, ptr %6, i64 16
  store i32 %3, ptr %13, align 8, !tbaa !588
  %14 = getelementptr inbounds nuw i8, ptr %0, i64 48
  %15 = call noundef ptr @_ZNK14core_hashtableI18default_hash_entryIN3smt13quick_checker9collector5entryEE8obj_hashIS4_E10default_eqIS4_EE9find_coreERKS4_(ptr noundef nonnull align 8 dereferenceable(20) %14, ptr noundef nonnull align 8 dereferenceable(20) %6)
  %.not9 = icmp eq ptr %15, null
  br i1 %.not9, label %16, label %17

16:                                               ; preds = %_Z9is_groundPK4expr.exit.thread
  call void @llvm.lifetime.start.p0(i64 24, ptr nonnull %5) #19
  call void @llvm.memcpy.p0.p0.i64(ptr noundef nonnull align 8 dereferenceable(24) %5, ptr noundef nonnull align 8 dereferenceable(24) %6, i64 24, i1 false), !tbaa.struct !589
  call void @_ZN14core_hashtableI18default_hash_entryIN3smt13quick_checker9collector5entryEE8obj_hashIS4_E10default_eqIS4_EE6insertEOS4_(ptr noundef nonnull align 8 dereferenceable(20) %14, ptr noundef nonnull align 8 dereferenceable(20) %5)
  call void @llvm.lifetime.end.p0(i64 24, ptr nonnull %5) #19
  call void @_ZN3smt13quick_checker9collector12collect_coreEP3appP9func_declj(ptr noundef nonnull align 8 dereferenceable(72) %0, ptr noundef nonnull %1, ptr noundef %2, i32 noundef %3)
  br label %17

17:                                               ; preds = %_Z9is_groundPK4expr.exit.thread, %16
  call void @llvm.lifetime.end.p0(i64 24, ptr nonnull %6) #19
  br label %18

18:                                               ; preds = %4, %4, %_Z9is_groundPK4expr.exit, %17
  ret void
}